ARM GAS  /tmp/cclhEgoQ.s 			page 1


   1              		.cpu cortex-m3
   2              		.eabi_attribute 20, 1
   3              		.eabi_attribute 21, 1
   4              		.eabi_attribute 23, 3
   5              		.eabi_attribute 24, 1
   6              		.eabi_attribute 25, 1
   7              		.eabi_attribute 26, 1
   8              		.eabi_attribute 30, 1
   9              		.eabi_attribute 34, 1
  10              		.eabi_attribute 18, 4
  11              		.file	"main.c"
  12              		.text
  13              	.Ltext0:
  14              		.cfi_sections	.debug_frame
  15              		.section	.text.main,"ax",%progbits
  16              		.align	1
  17              		.global	main
  18              		.arch armv7-m
  19              		.syntax unified
  20              		.thumb
  21              		.thumb_func
  22              		.fpu softvfp
  24              	main:
  25              	.LFB65:
  26              		.file 1 "Src/main.c"
   1:Src/main.c    **** #include "main.h"
   2:Src/main.c    **** #include"stm32f1xx.h"
   3:Src/main.c    **** #include"init.h"
   4:Src/main.c    **** #include"rcc.h"
   5:Src/main.c    **** #include"gpio.h"
   6:Src/main.c    **** #include"disp.h"
   7:Src/main.c    **** #include"input.h"
   8:Src/main.c    **** #include"adc.h"
   9:Src/main.c    **** #include"solder.h"
  10:Src/main.c    **** 
  11:Src/main.c    **** int main(void){
  27              		.loc 1 11 15 view -0
  28              		.cfi_startproc
  29              		@ Volatile: function does not return.
  30              		@ args = 0, pretend = 0, frame = 0
  31              		@ frame_needed = 0, uses_anonymous_args = 0
  32 0000 08B5     		push	{r3, lr}
  33              	.LCFI0:
  34              		.cfi_def_cfa_offset 8
  35              		.cfi_offset 3, -8
  36              		.cfi_offset 14, -4
  12:Src/main.c    ****     rcc_init();
  37              		.loc 1 12 5 view .LVU1
  38 0002 FFF7FEFF 		bl	rcc_init
  39              	.LVL0:
  13:Src/main.c    ****     init();
  40              		.loc 1 13 5 view .LVU2
  41 0006 FFF7FEFF 		bl	init
  42              	.LVL1:
  14:Src/main.c    ****     gpio_init();
  43              		.loc 1 14 5 view .LVU3
  44 000a FFF7FEFF 		bl	gpio_init
ARM GAS  /tmp/cclhEgoQ.s 			page 2


  45              	.LVL2:
  15:Src/main.c    ****     disp_init();
  46              		.loc 1 15 5 view .LVU4
  47 000e FFF7FEFF 		bl	disp_init
  48              	.LVL3:
  16:Src/main.c    ****     adc_init();
  49              		.loc 1 16 5 view .LVU5
  50 0012 FFF7FEFF 		bl	adc_init
  51              	.LVL4:
  17:Src/main.c    ****     dma_init();
  52              		.loc 1 17 5 view .LVU6
  53 0016 FFF7FEFF 		bl	dma_init
  54              	.LVL5:
  18:Src/main.c    ****     up.port=GPIOA;
  55              		.loc 1 18 5 view .LVU7
  56              		.loc 1 18 12 is_stmt 0 view .LVU8
  57 001a 0E48     		ldr	r0, .L4
  58 001c 0E4B     		ldr	r3, .L4+4
  59 001e 0360     		str	r3, [r0]
  19:Src/main.c    ****     up.pin=GPIO_IDR_IDR3;
  60              		.loc 1 19 5 is_stmt 1 view .LVU9
  61              		.loc 1 19 11 is_stmt 0 view .LVU10
  62 0020 0822     		movs	r2, #8
  63 0022 4260     		str	r2, [r0, #4]
  20:Src/main.c    ****     dwn.port=GPIOA;
  64              		.loc 1 20 5 is_stmt 1 view .LVU11
  65              		.loc 1 20 13 is_stmt 0 view .LVU12
  66 0024 0D4D     		ldr	r5, .L4+8
  67 0026 2B60     		str	r3, [r5]
  21:Src/main.c    ****     dwn.pin=GPIO_IDR_IDR4;
  68              		.loc 1 21 5 is_stmt 1 view .LVU13
  69              		.loc 1 21 12 is_stmt 0 view .LVU14
  70 0028 1022     		movs	r2, #16
  71 002a 6A60     		str	r2, [r5, #4]
  22:Src/main.c    ****     up_dwn.port=GPIOA;
  72              		.loc 1 22 5 is_stmt 1 view .LVU15
  73              		.loc 1 22 16 is_stmt 0 view .LVU16
  74 002c 0C4C     		ldr	r4, .L4+12
  75 002e 2360     		str	r3, [r4]
  23:Src/main.c    ****     up_dwn.pin=GPIO_IDR_IDR3|GPIO_IDR_IDR4;
  76              		.loc 1 23 5 is_stmt 1 view .LVU17
  77              		.loc 1 23 15 is_stmt 0 view .LVU18
  78 0030 1823     		movs	r3, #24
  79 0032 6360     		str	r3, [r4, #4]
  24:Src/main.c    ****     OBInit(&up);
  80              		.loc 1 24 5 is_stmt 1 view .LVU19
  81 0034 FFF7FEFF 		bl	OBInit
  82              	.LVL6:
  25:Src/main.c    ****     OBInit(&dwn);
  83              		.loc 1 25 5 view .LVU20
  84 0038 2846     		mov	r0, r5
  85 003a FFF7FEFF 		bl	OBInit
  86              	.LVL7:
  26:Src/main.c    ****     OBInit(&up_dwn);
  87              		.loc 1 26 5 view .LVU21
  88 003e 2046     		mov	r0, r4
  89 0040 FFF7FEFF 		bl	OBInit
ARM GAS  /tmp/cclhEgoQ.s 			page 3


  90              	.LVL8:
  27:Src/main.c    ****     d_symb=EMPTY;
  91              		.loc 1 27 5 view .LVU22
  92              		.loc 1 27 11 is_stmt 0 view .LVU23
  93 0044 074B     		ldr	r3, .L4+16
  94 0046 0A22     		movs	r2, #10
  95 0048 1A70     		strb	r2, [r3]
  28:Src/main.c    ****  solder_init();
  96              		.loc 1 28 2 is_stmt 1 view .LVU24
  97 004a FFF7FEFF 		bl	solder_init
  98              	.LVL9:
  99              	.L2:
  29:Src/main.c    ****   while (1)
 100              		.loc 1 29 3 discriminator 1 view .LVU25
  30:Src/main.c    ****   {
  31:Src/main.c    **** 
  32:Src/main.c    ****   // d_dig=adc_value();
  33:Src/main.c    **** main_screen();
 101              		.loc 1 33 1 discriminator 1 view .LVU26
 102 004e FFF7FEFF 		bl	main_screen
 103              	.LVL10:
  29:Src/main.c    ****   while (1)
 104              		.loc 1 29 9 discriminator 1 view .LVU27
 105 0052 FCE7     		b	.L2
 106              	.L5:
 107              		.align	2
 108              	.L4:
 109 0054 00000000 		.word	up
 110 0058 00080140 		.word	1073809408
 111 005c 00000000 		.word	dwn
 112 0060 00000000 		.word	up_dwn
 113 0064 00000000 		.word	d_symb
 114              		.cfi_endproc
 115              	.LFE65:
 117              		.section	.text.Error_Handler,"ax",%progbits
 118              		.align	1
 119              		.global	Error_Handler
 120              		.syntax unified
 121              		.thumb
 122              		.thumb_func
 123              		.fpu softvfp
 125              	Error_Handler:
 126              	.LFB66:
  34:Src/main.c    **** }
  35:Src/main.c    **** 
  36:Src/main.c    **** //d_dig=dwn.btn_flag;
  37:Src/main.c    ****   }
  38:Src/main.c    **** 
  39:Src/main.c    **** 
  40:Src/main.c    **** 
  41:Src/main.c    **** 
  42:Src/main.c    **** 
  43:Src/main.c    **** 
  44:Src/main.c    **** 
  45:Src/main.c    **** 
  46:Src/main.c    **** 
  47:Src/main.c    **** 
ARM GAS  /tmp/cclhEgoQ.s 			page 4


  48:Src/main.c    **** 
  49:Src/main.c    **** 
  50:Src/main.c    **** 
  51:Src/main.c    **** void Error_Handler(void)
  52:Src/main.c    **** {
 127              		.loc 1 52 1 view -0
 128              		.cfi_startproc
 129              		@ args = 0, pretend = 0, frame = 0
 130              		@ frame_needed = 0, uses_anonymous_args = 0
 131              		@ link register save eliminated.
  53:Src/main.c    **** 
  54:Src/main.c    **** }
 132              		.loc 1 54 1 view .LVU29
 133 0000 7047     		bx	lr
 134              		.cfi_endproc
 135              	.LFE66:
 137              		.text
 138              	.Letext0:
 139              		.file 2 "/usr/arm-none-eabi/include/machine/_default_types.h"
 140              		.file 3 "/usr/arm-none-eabi/include/sys/_stdint.h"
 141              		.file 4 "Drivers/CMSIS/Include/core_cm3.h"
 142              		.file 5 "Drivers/CMSIS/Device/ST/STM32F1xx/Include/system_stm32f1xx.h"
 143              		.file 6 "Drivers/CMSIS/Device/ST/STM32F1xx/Include/stm32f103xb.h"
 144              		.file 7 "Drivers/init/init.h"
 145              		.file 8 "Drivers/disp/disp.h"
 146              		.file 9 "Drivers/input/input.h"
 147              		.file 10 "Drivers/rcc/rcc.h"
 148              		.file 11 "Drivers/gpio/gpio.h"
 149              		.file 12 "Drivers/adc/adc.h"
 150              		.file 13 "Inc/solder.h"
ARM GAS  /tmp/cclhEgoQ.s 			page 5


DEFINED SYMBOLS
                            *ABS*:0000000000000000 main.c
     /tmp/cclhEgoQ.s:16     .text.main:0000000000000000 $t
     /tmp/cclhEgoQ.s:24     .text.main:0000000000000000 main
     /tmp/cclhEgoQ.s:109    .text.main:0000000000000054 $d
     /tmp/cclhEgoQ.s:118    .text.Error_Handler:0000000000000000 $t
     /tmp/cclhEgoQ.s:125    .text.Error_Handler:0000000000000000 Error_Handler

UNDEFINED SYMBOLS
rcc_init
init
gpio_init
disp_init
adc_init
dma_init
OBInit
solder_init
main_screen
up
dwn
up_dwn
d_symb
