ARM GAS  /tmp/ccSbf9dh.s 			page 1


   1              		.cpu cortex-m3
   2              		.eabi_attribute 20, 1
   3              		.eabi_attribute 21, 1
   4              		.eabi_attribute 23, 3
   5              		.eabi_attribute 24, 1
   6              		.eabi_attribute 25, 1
   7              		.eabi_attribute 26, 1
   8              		.eabi_attribute 30, 1
   9              		.eabi_attribute 34, 1
  10              		.eabi_attribute 18, 4
  11              		.file	"stm32f1xx_it.c"
  12              		.text
  13              	.Ltext0:
  14              		.cfi_sections	.debug_frame
  15              		.section	.text.NMI_Handler,"ax",%progbits
  16              		.align	1
  17              		.global	NMI_Handler
  18              		.arch armv7-m
  19              		.syntax unified
  20              		.thumb
  21              		.thumb_func
  22              		.fpu softvfp
  24              	NMI_Handler:
  25              	.LFB0:
  26              		.file 1 "Src/stm32f1xx_it.c"
   1:Src/stm32f1xx_it.c **** /* USER CODE BEGIN Header */
   2:Src/stm32f1xx_it.c **** /**
   3:Src/stm32f1xx_it.c ****   ******************************************************************************
   4:Src/stm32f1xx_it.c ****   * @file    stm32f1xx_it.c
   5:Src/stm32f1xx_it.c ****   * @brief   Interrupt Service Routines.
   6:Src/stm32f1xx_it.c ****   ******************************************************************************
   7:Src/stm32f1xx_it.c ****   * @attention
   8:Src/stm32f1xx_it.c ****   *
   9:Src/stm32f1xx_it.c ****   * <h2><center>&copy; Copyright (c) 2019 STMicroelectronics.
  10:Src/stm32f1xx_it.c ****   * All rights reserved.</center></h2>
  11:Src/stm32f1xx_it.c ****   *
  12:Src/stm32f1xx_it.c ****   * This software component is licensed by ST under BSD 3-Clause license,
  13:Src/stm32f1xx_it.c ****   * the "License"; You may not use this file except in compliance with the
  14:Src/stm32f1xx_it.c ****   * License. You may obtain a copy of the License at:
  15:Src/stm32f1xx_it.c ****   *                        opensource.org/licenses/BSD-3-Clause
  16:Src/stm32f1xx_it.c ****   *
  17:Src/stm32f1xx_it.c ****   ******************************************************************************
  18:Src/stm32f1xx_it.c ****   */
  19:Src/stm32f1xx_it.c **** 
  20:Src/stm32f1xx_it.c **** /* Includes ------------------------------------------------------------------*/
  21:Src/stm32f1xx_it.c **** #include "main.h"
  22:Src/stm32f1xx_it.c **** #include "stm32f1xx_it.h"
  23:Src/stm32f1xx_it.c **** void NMI_Handler(void)
  24:Src/stm32f1xx_it.c **** {
  27              		.loc 1 24 1 view -0
  28              		.cfi_startproc
  29              		@ args = 0, pretend = 0, frame = 0
  30              		@ frame_needed = 0, uses_anonymous_args = 0
  31              		@ link register save eliminated.
  25:Src/stm32f1xx_it.c **** 
  26:Src/stm32f1xx_it.c **** }
  32              		.loc 1 26 1 view .LVU1
ARM GAS  /tmp/ccSbf9dh.s 			page 2


  33 0000 7047     		bx	lr
  34              		.cfi_endproc
  35              	.LFE0:
  37              		.section	.text.HardFault_Handler,"ax",%progbits
  38              		.align	1
  39              		.global	HardFault_Handler
  40              		.syntax unified
  41              		.thumb
  42              		.thumb_func
  43              		.fpu softvfp
  45              	HardFault_Handler:
  46              	.LFB1:
  27:Src/stm32f1xx_it.c **** 
  28:Src/stm32f1xx_it.c **** 
  29:Src/stm32f1xx_it.c **** void HardFault_Handler(void)
  30:Src/stm32f1xx_it.c **** {
  47              		.loc 1 30 1 view -0
  48              		.cfi_startproc
  49              		@ Volatile: function does not return.
  50              		@ args = 0, pretend = 0, frame = 0
  51              		@ frame_needed = 0, uses_anonymous_args = 0
  52              		@ link register save eliminated.
  53              	.L3:
  31:Src/stm32f1xx_it.c **** 
  32:Src/stm32f1xx_it.c ****   while (1)
  54              		.loc 1 32 3 discriminator 1 view .LVU3
  33:Src/stm32f1xx_it.c ****   {
  34:Src/stm32f1xx_it.c **** 
  35:Src/stm32f1xx_it.c ****   }
  55              		.loc 1 35 3 discriminator 1 view .LVU4
  32:Src/stm32f1xx_it.c ****   {
  56              		.loc 1 32 9 discriminator 1 view .LVU5
  57 0000 FEE7     		b	.L3
  58              		.cfi_endproc
  59              	.LFE1:
  61              		.section	.text.MemManage_Handler,"ax",%progbits
  62              		.align	1
  63              		.global	MemManage_Handler
  64              		.syntax unified
  65              		.thumb
  66              		.thumb_func
  67              		.fpu softvfp
  69              	MemManage_Handler:
  70              	.LFB2:
  36:Src/stm32f1xx_it.c **** }
  37:Src/stm32f1xx_it.c **** 
  38:Src/stm32f1xx_it.c **** void MemManage_Handler(void)
  39:Src/stm32f1xx_it.c **** {
  71              		.loc 1 39 1 view -0
  72              		.cfi_startproc
  73              		@ Volatile: function does not return.
  74              		@ args = 0, pretend = 0, frame = 0
  75              		@ frame_needed = 0, uses_anonymous_args = 0
  76              		@ link register save eliminated.
  77              	.L5:
  40:Src/stm32f1xx_it.c **** 
  41:Src/stm32f1xx_it.c ****   while (1)
ARM GAS  /tmp/ccSbf9dh.s 			page 3


  78              		.loc 1 41 3 discriminator 1 view .LVU7
  42:Src/stm32f1xx_it.c ****   {
  43:Src/stm32f1xx_it.c **** 
  44:Src/stm32f1xx_it.c ****   }
  79              		.loc 1 44 3 discriminator 1 view .LVU8
  41:Src/stm32f1xx_it.c ****   {
  80              		.loc 1 41 9 discriminator 1 view .LVU9
  81 0000 FEE7     		b	.L5
  82              		.cfi_endproc
  83              	.LFE2:
  85              		.section	.text.BusFault_Handler,"ax",%progbits
  86              		.align	1
  87              		.global	BusFault_Handler
  88              		.syntax unified
  89              		.thumb
  90              		.thumb_func
  91              		.fpu softvfp
  93              	BusFault_Handler:
  94              	.LFB3:
  45:Src/stm32f1xx_it.c **** }
  46:Src/stm32f1xx_it.c **** 
  47:Src/stm32f1xx_it.c **** 
  48:Src/stm32f1xx_it.c **** void BusFault_Handler(void)
  49:Src/stm32f1xx_it.c **** {
  95              		.loc 1 49 1 view -0
  96              		.cfi_startproc
  97              		@ Volatile: function does not return.
  98              		@ args = 0, pretend = 0, frame = 0
  99              		@ frame_needed = 0, uses_anonymous_args = 0
 100              		@ link register save eliminated.
 101              	.L7:
  50:Src/stm32f1xx_it.c **** 
  51:Src/stm32f1xx_it.c ****   while (1)
 102              		.loc 1 51 3 discriminator 1 view .LVU11
  52:Src/stm32f1xx_it.c ****   {
  53:Src/stm32f1xx_it.c **** 
  54:Src/stm32f1xx_it.c ****   }
 103              		.loc 1 54 3 discriminator 1 view .LVU12
  51:Src/stm32f1xx_it.c ****   {
 104              		.loc 1 51 9 discriminator 1 view .LVU13
 105 0000 FEE7     		b	.L7
 106              		.cfi_endproc
 107              	.LFE3:
 109              		.section	.text.UsageFault_Handler,"ax",%progbits
 110              		.align	1
 111              		.global	UsageFault_Handler
 112              		.syntax unified
 113              		.thumb
 114              		.thumb_func
 115              		.fpu softvfp
 117              	UsageFault_Handler:
 118              	.LFB4:
  55:Src/stm32f1xx_it.c **** }
  56:Src/stm32f1xx_it.c **** 
  57:Src/stm32f1xx_it.c **** /**
  58:Src/stm32f1xx_it.c ****   * @brief This function handles Undefined instruction or illegal state.
  59:Src/stm32f1xx_it.c ****   */
ARM GAS  /tmp/ccSbf9dh.s 			page 4


  60:Src/stm32f1xx_it.c **** void UsageFault_Handler(void)
  61:Src/stm32f1xx_it.c **** {
 119              		.loc 1 61 1 view -0
 120              		.cfi_startproc
 121              		@ Volatile: function does not return.
 122              		@ args = 0, pretend = 0, frame = 0
 123              		@ frame_needed = 0, uses_anonymous_args = 0
 124              		@ link register save eliminated.
 125              	.L9:
  62:Src/stm32f1xx_it.c **** 
  63:Src/stm32f1xx_it.c ****   while (1)
 126              		.loc 1 63 3 discriminator 1 view .LVU15
  64:Src/stm32f1xx_it.c ****   {
  65:Src/stm32f1xx_it.c **** 
  66:Src/stm32f1xx_it.c ****   }
 127              		.loc 1 66 3 discriminator 1 view .LVU16
  63:Src/stm32f1xx_it.c ****   {
 128              		.loc 1 63 9 discriminator 1 view .LVU17
 129 0000 FEE7     		b	.L9
 130              		.cfi_endproc
 131              	.LFE4:
 133              		.section	.text.SVC_Handler,"ax",%progbits
 134              		.align	1
 135              		.global	SVC_Handler
 136              		.syntax unified
 137              		.thumb
 138              		.thumb_func
 139              		.fpu softvfp
 141              	SVC_Handler:
 142              	.LFB5:
  67:Src/stm32f1xx_it.c **** }
  68:Src/stm32f1xx_it.c **** 
  69:Src/stm32f1xx_it.c **** 
  70:Src/stm32f1xx_it.c **** void SVC_Handler(void)
  71:Src/stm32f1xx_it.c **** {
 143              		.loc 1 71 1 view -0
 144              		.cfi_startproc
 145              		@ args = 0, pretend = 0, frame = 0
 146              		@ frame_needed = 0, uses_anonymous_args = 0
 147              		@ link register save eliminated.
  72:Src/stm32f1xx_it.c **** 
  73:Src/stm32f1xx_it.c **** }
 148              		.loc 1 73 1 view .LVU19
 149 0000 7047     		bx	lr
 150              		.cfi_endproc
 151              	.LFE5:
 153              		.section	.text.DebugMon_Handler,"ax",%progbits
 154              		.align	1
 155              		.global	DebugMon_Handler
 156              		.syntax unified
 157              		.thumb
 158              		.thumb_func
 159              		.fpu softvfp
 161              	DebugMon_Handler:
 162              	.LFB6:
  74:Src/stm32f1xx_it.c **** 
  75:Src/stm32f1xx_it.c **** 
ARM GAS  /tmp/ccSbf9dh.s 			page 5


  76:Src/stm32f1xx_it.c **** void DebugMon_Handler(void)
  77:Src/stm32f1xx_it.c **** {
 163              		.loc 1 77 1 view -0
 164              		.cfi_startproc
 165              		@ args = 0, pretend = 0, frame = 0
 166              		@ frame_needed = 0, uses_anonymous_args = 0
 167              		@ link register save eliminated.
  78:Src/stm32f1xx_it.c **** 
  79:Src/stm32f1xx_it.c **** }
 168              		.loc 1 79 1 view .LVU21
 169 0000 7047     		bx	lr
 170              		.cfi_endproc
 171              	.LFE6:
 173              		.section	.text.PendSV_Handler,"ax",%progbits
 174              		.align	1
 175              		.global	PendSV_Handler
 176              		.syntax unified
 177              		.thumb
 178              		.thumb_func
 179              		.fpu softvfp
 181              	PendSV_Handler:
 182              	.LFB7:
  80:Src/stm32f1xx_it.c **** 
  81:Src/stm32f1xx_it.c **** void PendSV_Handler(void)
  82:Src/stm32f1xx_it.c **** {
 183              		.loc 1 82 1 view -0
 184              		.cfi_startproc
 185              		@ args = 0, pretend = 0, frame = 0
 186              		@ frame_needed = 0, uses_anonymous_args = 0
 187              		@ link register save eliminated.
  83:Src/stm32f1xx_it.c **** 
  84:Src/stm32f1xx_it.c **** }
 188              		.loc 1 84 1 view .LVU23
 189 0000 7047     		bx	lr
 190              		.cfi_endproc
 191              	.LFE7:
 193              		.text
 194              	.Letext0:
ARM GAS  /tmp/ccSbf9dh.s 			page 6

